; ModuleID = 'bench/linux/original/context.ll'
source_filename = "bench/linux/original/context.ll"
target datalayout = "e-m:e-p270:32:32-p271:32:32-p272:64:64-i64:64-i128:128-f80:128-n8:16:32:64-S128"
target triple = "x86_64-unknown-linux-gnu"

; Function Attrs: fn_ret_thunk_extern nounwind null_pointer_is_valid
define dso_local i32 @context_compute_hash(ptr noundef %0) local_unnamed_addr #0 align 16 {
  %2 = getelementptr inbounds i8, ptr %0, i64 12
  %3 = load i32, ptr %2, align 4
  %4 = icmp eq i32 %3, 0
  br i1 %4, label %9, label %5

5:                                                ; preds = %1
  %6 = getelementptr inbounds i8, ptr %0, i64 64
  %7 = load ptr, ptr %6, align 8
  %8 = tail call i32 @full_name_hash(ptr noundef null, ptr noundef %7, i32 noundef %3) #4
  br label %71

9:                                                ; preds = %1
  %10 = load i32, ptr %0, align 8
  %11 = getelementptr inbounds i8, ptr %0, i64 4
  %12 = load i32, ptr %11, align 4
  %13 = getelementptr inbounds i8, ptr %0, i64 8
  %14 = load i32, ptr %13, align 8
  %15 = add i32 %10, -559038725
  %16 = add i32 %12, -559038725
  %17 = add i32 %14, -559038725
  %18 = xor i32 %17, %16
  %19 = tail call noundef i32 @llvm.fshl.i32(i32 %16, i32 %16, i32 14)
  %20 = sub i32 %18, %19
  %21 = xor i32 %20, %15
  %22 = tail call noundef i32 @llvm.fshl.i32(i32 %20, i32 %20, i32 11)
  %23 = sub i32 %21, %22
  %24 = xor i32 %23, %16
  %25 = tail call noundef i32 @llvm.fshl.i32(i32 %23, i32 %23, i32 25)
  %26 = sub i32 %24, %25
  %27 = xor i32 %26, %20
  %28 = tail call noundef i32 @llvm.fshl.i32(i32 %26, i32 %26, i32 16)
  %29 = sub i32 %27, %28
  %30 = xor i32 %29, %23
  %31 = tail call noundef i32 @llvm.fshl.i32(i32 %29, i32 %29, i32 4)
  %32 = sub i32 %30, %31
  %33 = xor i32 %32, %26
  %34 = tail call noundef i32 @llvm.fshl.i32(i32 %32, i32 %32, i32 14)
  %35 = sub i32 %33, %34
  %36 = xor i32 %35, %29
  %37 = tail call noundef i32 @llvm.fshl.i32(i32 %35, i32 %35, i32 24)
  %38 = sub i32 %36, %37
  %39 = getelementptr inbounds i8, ptr %0, i64 16
  %40 = load i32, ptr %39, align 8
  %41 = getelementptr i8, ptr %0, i64 40
  %42 = load i32, ptr %41, align 8
  %43 = add i32 %38, -559038729
  %44 = add i32 %43, %40
  %45 = add i32 %43, %42
  %46 = xor i32 %45, %43
  %47 = tail call noundef i32 @llvm.fshl.i32(i32 %45, i32 %45, i32 14)
  %48 = sub i32 %46, %47
  %49 = xor i32 %48, %44
  %50 = tail call noundef i32 @llvm.fshl.i32(i32 %48, i32 %48, i32 11)
  %51 = sub i32 %49, %50
  %52 = xor i32 %51, %45
  %53 = tail call noundef i32 @llvm.fshl.i32(i32 %51, i32 %51, i32 25)
  %54 = sub i32 %52, %53
  %55 = xor i32 %54, %48
  %56 = tail call noundef i32 @llvm.fshl.i32(i32 %54, i32 %54, i32 16)
  %57 = sub i32 %55, %56
  %58 = xor i32 %57, %51
  %59 = tail call noundef i32 @llvm.fshl.i32(i32 %57, i32 %57, i32 4)
  %60 = sub i32 %58, %59
  %61 = xor i32 %60, %54
  %62 = tail call noundef i32 @llvm.fshl.i32(i32 %60, i32 %60, i32 14)
  %63 = sub i32 %61, %62
  %64 = xor i32 %63, %57
  %65 = tail call noundef i32 @llvm.fshl.i32(i32 %63, i32 %63, i32 24)
  %66 = sub i32 %64, %65
  %67 = getelementptr inbounds i8, ptr %0, i64 24
  %68 = tail call i32 @ebitmap_hash(ptr noundef %67, i32 noundef %66) #5
  %69 = getelementptr i8, ptr %0, i64 48
  %70 = tail call i32 @ebitmap_hash(ptr noundef %69, i32 noundef %68) #5
  br label %71

71:                                               ; preds = %9, %5
  %72 = phi i32 [ %8, %5 ], [ %70, %9 ]
  ret i32 %72
}

; Function Attrs: mustprogress nofree nounwind null_pointer_is_valid willreturn memory(read)
declare dso_local i32 @full_name_hash(ptr noundef, ptr noundef, i32 noundef) local_unnamed_addr #1

; Function Attrs: null_pointer_is_valid
declare dso_local i32 @ebitmap_hash(ptr noundef, i32 noundef) local_unnamed_addr #2

; Function Attrs: mustprogress nocallback nofree nosync nounwind speculatable willreturn memory(none)
declare i32 @llvm.fshl.i32(i32, i32, i32) #3


!llvm.module.flags = !{!0, !1, !2, !3, !4}

!0 = !{i32 1, !"wchar_size", i32 2}
!1 = !{i32 8, !"cf-protection-branch", i32 1}
!2 = !{i32 4, !"function_return_thunk_extern", i32 1}
!3 = !{i32 4, !"indirect_branch_cs_prefix", i32 1}
!4 = !{i32 4, !"SkipRaxSetup", i32 1}
